; Function Attrs: mustprogress uwtable
define void @_ZNK6casadi12SparsityCast11get_reshapeERKNS_8SparsityE(ptr dead_on_unwind noalias writable sret(%"class.casadi::MX") align 8 %0, ptr noundef nonnull align 8 dereferenceable(64) %1, ptr noundef nonnull align 8 dereferenceable(8) %2) unnamed_addr #3 align 2 {
  %4 = getelementptr inbounds i8, ptr %1, i64 32
  %5 = getelementptr inbounds i8, ptr %1, i64 40
  %6 = load ptr, ptr %5, align 8
  %7 = load ptr, ptr %4, align 8
  %.not.i.i.i.not = icmp eq ptr %6, %7
  br i1 %.not.i.i.i.not, label %8, label %_ZNK6casadi6MXNode3depEx.exit

8:                                                ; preds = %3
  tail call void (ptr, ...) @_ZSt24__throw_out_of_range_fmtPKcz(ptr noundef nonnull @.str.14, i64 noundef 0, i64 noundef 0) #14
  unreachable

_ZNK6casadi6MXNode3depEx.exit:                    ; preds = %3
  %9 = tail call noundef nonnull align 8 dereferenceable(8) ptr @_ZNK6casadi2MX8sparsityEv(ptr noundef nonnull align 8 dereferenceable(8) %7)
  %10 = tail call noundef zeroext i1 @_ZNK6casadi8Sparsity10is_reshapeERKS0_(ptr noundef nonnull align 8 dereferenceable(8) %2, ptr noundef nonnull align 8 dereferenceable(8) %9)
  br i1 %10, label %11, label %15

11:                                               ; preds = %_ZNK6casadi6MXNode3depEx.exit
  %12 = load ptr, ptr %5, align 8
  %13 = load ptr, ptr %4, align 8
  %.not.i.i.i4.not = icmp eq ptr %12, %13
  br i1 %.not.i.i.i4.not, label %14, label %_ZNK6casadi6MXNode3depEx.exit5

14:                                               ; preds = %11
  tail call void (ptr, ...) @_ZSt24__throw_out_of_range_fmtPKcz(ptr noundef nonnull @.str.14, i64 noundef 0, i64 noundef 0) #14
  unreachable

_ZNK6casadi6MXNode3depEx.exit5:                   ; preds = %11
  tail call void @_ZN6casadi2MX7reshapeERKS0_RKNS_8SparsityE(ptr dead_on_unwind writable sret(%"class.casadi::MX") align 8 %0, ptr noundef nonnull align 8 dereferenceable(8) %13, ptr noundef nonnull align 8 dereferenceable(8) %2)
  br label %16

15:                                               ; preds = %_ZNK6casadi6MXNode3depEx.exit
  tail call void @_ZNK6casadi6MXNode11get_reshapeERKNS_8SparsityE(ptr dead_on_unwind writable sret(%"class.casadi::MX") align 8 %0, ptr noundef nonnull align 8 dereferenceable(64) %1, ptr noundef nonnull align 8 dereferenceable(8) %2)
  br label %16

16:                                               ; preds = %15, %_ZNK6casadi6MXNode3depEx.exit5
  ret void
}